(dp1
S'output'
p2
S"<type 'exceptions.ValueError'> too many values to unpack"
p3
sS'layer'
p4
S'/Users/Dkpalea/PycharmProjects/favr-final-project/applications/favr/controllers/api.py'
p5
sS'code'
p6
S'<code object <module> at 0x109269430, file "/Users/Dkpalea/PycharmProjects/favr-final-project/applications/favr/controllers/api.py", line 1>'
p7
sS'snapshot'
p8
(dp9
S'exception'
p10
(dp11
S'__getslice__'
p12
S"<method-wrapper '__getslice__' of exceptions.ValueError object>"
p13
sS'__str__'
p14
S"<method-wrapper '__str__' of exceptions.ValueError object>"
p15
sS'__reduce__'
p16
S'<built-in method __reduce__ of exceptions.ValueError object>'
p17
sS'__dict__'
p18
S'{}'
p19
sS'message'
p20
S"'too many values to unpack'"
p21
sS'__sizeof__'
p22
S'<built-in method __sizeof__ of exceptions.ValueError object>'
p23
sS'__init__'
p24
S"<method-wrapper '__init__' of exceptions.ValueError object>"
p25
sS'__setattr__'
p26
S"<method-wrapper '__setattr__' of exceptions.ValueError object>"
p27
sS'__reduce_ex__'
p28
S'<built-in method __reduce_ex__ of exceptions.ValueError object>'
p29
sS'__new__'
p30
S'<built-in method __new__ of type object>'
p31
sS'__format__'
p32
S'<built-in method __format__ of exceptions.ValueError object>'
p33
sS'__class__'
p34
S"<type 'exceptions.ValueError'>"
p35
sS'__doc__'
p36
S"'Inappropriate argument value (of correct type).'"
p37
sS'__getitem__'
p38
S"<method-wrapper '__getitem__' of exceptions.ValueError object>"
p39
sS'__setstate__'
p40
S'<built-in method __setstate__ of exceptions.ValueError object>'
p41
sS'__getattribute__'
p42
S"<method-wrapper '__getattribute__' of exceptions.ValueError object>"
p43
sS'args'
p44
S"('too many values to unpack',)"
p45
sS'__subclasshook__'
p46
S'<built-in method __subclasshook__ of type object>'
p47
sS'__unicode__'
p48
S'<built-in method __unicode__ of exceptions.ValueError object>'
p49
sS'__delattr__'
p50
S"<method-wrapper '__delattr__' of exceptions.ValueError object>"
p51
sS'__repr__'
p52
S"<method-wrapper '__repr__' of exceptions.ValueError object>"
p53
sS'__hash__'
p54
S"<method-wrapper '__hash__' of exceptions.ValueError object>"
p55
ssS'evalue'
p56
S'too many values to unpack'
p57
sS'request'
p58
cgluon.html
XML_unpickle
p59
(S's\x8dT\x00\x00<div><table><tr><td style="font-weight:bold;vertical-align:top;">ajax</td><td style="vertical-align:top;">:</td><td><div>False</div></td></tr><tr><td style="font-weight:bold;vertical-align:top;">application</td><td style="vertical-align:top;">:</td><td><div>favr</div></td></tr><tr><td style="font-weight:bold;vertical-align:top;">args</td><td style="vertical-align:top;">:</td><td><div><table></table></div></td></tr><tr><td style="font-weight:bold;vertical-align:top;">cid</td><td style="vertical-align:top;">:</td><td><div>None</div></td></tr><tr><td style="font-weight:bold;vertical-align:top;">client</td><td style="vertical-align:top;">:</td><td><div>127.0.0.1</div></td></tr><tr><td style="font-weight:bold;vertical-align:top;">controller</td><td style="vertical-align:top;">:</td><td><div>api</div></td></tr><tr><td style="font-weight:bold;vertical-align:top;">cookies</td><td style="vertical-align:top;">:</td><td><div><table></table></div></td></tr><tr><td style="font-weight:bold;vertical-align:top;">env</td><td style="vertical-align:top;">:</td><td><div><table><tr><td style="font-weight:bold;vertical-align:top;">CONTENT_LENGTH</td><td style="vertical-align:top;">:</td><td><div>16</div></td></tr><tr><td style="font-weight:bold;vertical-align:top;">CONTENT_TYPE</td><td style="vertical-align:top;">:</td><td><div>application/x-www-form-urlencoded; charset=UTF-8</div></td></tr><tr><td style="font-weight:bold;vertical-align:top;">HTTP_ACCEPT</td><td style="vertical-align:top;">:</td><td><div>*/*</div></td></tr><tr><td style="font-weight:bold;vertical-align:top;">HTTP_ACCEPT_ENCODING</td><td style="vertical-align:top;">:</td><td><div>gzip, deflate, br</div></td></tr><tr><td style="font-weight:bold;vertical-align:top;">HTTP_ACCEPT_LANGUAGE</td><td style="vertical-align:top;">:</td><td><div>en-US,en;q=0.9,la;q=0.8</div></td></tr><tr><td style="font-weight:bold;vertical-align:top;">HTTP_CACHE_CONTROL</td><td style="vertical-align:top;">:</td><td><div>no-cache</div></td></tr><tr><td style="font-weight:bold;vertical-align:top;">HTTP_CONNECTION</td><td style="vertical-align:top;">:</td><td><div>keep-alive</div></td></tr><tr><td style="font-weight:bold;vertical-align:top;">HTTP_CONTENT_LENGTH</td><td style="vertical-align:top;">:</td><td><div>16</div></td></tr><tr><td style="font-weight:bold;vertical-align:top;">HTTP_CONTENT_TYPE</td><td style="vertical-align:top;">:</td><td><div>application/x-www-form-urlencoded; charset=UTF-8</div></td></tr><tr><td style="font-weight:bold;vertical-align:top;">HTTP_HOST</td><td style="vertical-align:top;">:</td><td><div>localhost:8000</div></td></tr><tr><td style="font-weight:bold;vertical-align:top;">HTTP_ORIGIN</td><td style="vertical-align:top;">:</td><td><div>http://localhost:8080</div></td></tr><tr><td style="font-weight:bold;vertical-align:top;">HTTP_PRAGMA</td><td style="vertical-align:top;">:</td><td><div>no-cache</div></td></tr><tr><td style="font-weight:bold;vertical-align:top;">HTTP_REFERER</td><td style="vertical-align:top;">:</td><td><div>http://localhost:8080/</div></td></tr><tr><td style="font-weight:bold;vertical-align:top;">HTTP_USER_AGENT</td><td style="vertical-align:top;">:</td><td><div>Mozilla/5.0 (Macintosh; Intel Mac OS X 10_14_0) AppleWebKit/537.36 (KHTML, like Gecko) Chrome/70.0.3538.110 Safari/537.36</div></td></tr><tr><td style="font-weight:bold;vertical-align:top;">PATH_INFO</td><td style="vertical-align:top;">:</td><td><div>/favr/api/getFavr</div></td></tr><tr><td style="font-weight:bold;vertical-align:top;">QUERY_STRING</td><td style="vertical-align:top;">:</td><td><div></div></td></tr><tr><td style="font-weight:bold;vertical-align:top;">REMOTE_ADDR</td><td style="vertical-align:top;">:</td><td><div>127.0.0.1</div></td></tr><tr><td style="font-weight:bold;vertical-align:top;">REMOTE_PORT</td><td style="vertical-align:top;">:</td><td><div>56799</div></td></tr><tr><td style="font-weight:bold;vertical-align:top;">REQUEST_METHOD</td><td style="vertical-align:top;">:</td><td><div>POST</div></td></tr><tr><td style="font-weight:bold;vertical-align:top;">SCRIPT_NAME</td><td style="vertical-align:top;">:</td><td><div></div></td></tr><tr><td style="font-weight:bold;vertical-align:top;">SERVER_NAME</td><td style="vertical-align:top;">:</td><td><div>eduroam-169-233-227-245.ucsc.edu</div></td></tr><tr><td style="font-weight:bold;vertical-align:top;">SERVER_PORT</td><td style="vertical-align:top;">:</td><td><div>8000</div></td></tr><tr><td style="font-weight:bold;vertical-align:top;">SERVER_PROTOCOL</td><td style="vertical-align:top;">:</td><td><div>HTTP/1.1</div></td></tr><tr><td style="font-weight:bold;vertical-align:top;">SERVER_SOFTWARE</td><td style="vertical-align:top;">:</td><td><div>Rocket 1.2.6</div></td></tr><tr><td style="font-weight:bold;vertical-align:top;">app_folders</td><td style="vertical-align:top;">:</td><td><div>set([&#x27;/Users/Dkpalea/PycharmProjects/favr-final-project/applications/admin/&#x27;, &#x27;/Users/Dkpalea/PycharmProjects/favr-final-project/applications/welcome/&#x27;, &#x27;/Users/Dkpalea/PycharmProjects/favr-final-project/applications/favr/&#x27;])</div></td></tr><tr><td style="font-weight:bold;vertical-align:top;">applications_parent</td><td style="vertical-align:top;">:</td><td><div>/Users/Dkpalea/PycharmProjects/favr-final-project</div></td></tr><tr><td style="font-weight:bold;vertical-align:top;">cmd_args</td><td style="vertical-align:top;">:</td><td><div><table></table></div></td></tr><tr><td style="font-weight:bold;vertical-align:top;">cmd_options</td><td style="vertical-align:top;">:</td><td><div>&lt;Values at 0x10382f0e0: {&#x27;verbose&#x27;: False, &#x27;ip&#x27;: &#x27;127.0.0.1&#x27;, &#x27;debuglevel&#x27;: 30, &#x27;with_scheduler&#x27;: False, &#x27;shutdown_timeout&#x27;: 5, &#x27;taskbar&#x27;: False, &#x27;with_coverage&#x27;: False, &#x27;pid_filename&#x27;: &#x27;httpserver.pid&#x27;, &#x27;maxthreads&#x27;: None, &#x27;softcron&#x27;: False, &#x27;server_name&#x27;: &#x27;eduroam-169-233-227-245.ucsc.edu&#x27;, &#x27;bpython&#x27;: False, &#x27;nogui&#x27;: False, &#x27;port&#x27;: 8000, &#x27;print_errors&#x27;: False, &#x27;extcron&#x27;: False, &#x27;runcron&#x27;: False, &#x27;run_system_tests&#x27;: False, &#x27;test&#x27;: None, &#x27;folder&#x27;: &#x27;/Users/Dkpalea/PycharmProjects/favr-final-project&#x27;, &#x27;config&#x27;: &#x27;&#x27;, &#x27;minthreads&#x27;: None, &#x27;shell&#x27;: None, &#x27;run&#x27;: &#x27;&#x27;, &#x27;log_filename&#x27;: &#x27;httpserver.log&#x27;, &#x27;profiler_dir&#x27;: None, &#x27;args&#x27;: [&#x27;&#x27;], &#x27;socket_timeout&#x27;: 5, &#x27;ssl_ca_certificate&#x27;: None, &#x27;scheduler&#x27;: None, &#x27;interfaces&#x27;: None, &#x27;ssl_private_key&#x27;: &#x27;&#x27;, &#x27;gae&#x27;: None, &#x27;password&#x27;: &#x27;******&#x27;, &#x27;request_queue_size&#x27;: 5, &#x27;ssl_certificate&#x27;: &#x27;&#x27;, &#x27;cronjob&#x27;: False, &#x27;numthreads&#x27;: None, &#x27;quiet&#x27;: False, &#x27;import_models&#x27;: False, &#x27;timeout&#x27;: 10, &#x27;plain&#x27;: False, &#x27;nobanner&#x27;: False}&gt;</div></td></tr><tr><td style="font-weight:bold;vertical-align:top;">content_length</td><td style="vertical-align:top;">:</td><td><div>16</div></td></tr><tr><td style="font-weight:bold;vertical-align:top;">content_type</td><td style="vertical-align:top;">:</td><td><div>application/x-www-form-urlencoded; charset=UTF-8</div></td></tr><tr><td style="font-weight:bold;vertical-align:top;">db_sessions</td><td style="vertical-align:top;">:</td><td><div>set([&#x27;favr&#x27;])</div></td></tr><tr><td style="font-weight:bold;vertical-align:top;">debugging</td><td style="vertical-align:top;">:</td><td><div>False</div></td></tr><tr><td style="font-weight:bold;vertical-align:top;">gluon_parent</td><td style="vertical-align:top;">:</td><td><div>/Users/Dkpalea/PycharmProjects/favr-final-project</div></td></tr><tr><td style="font-weight:bold;vertical-align:top;">http_accept</td><td style="vertical-align:top;">:</td><td><div>*/*</div></td></tr><tr><td style="font-weight:bold;vertical-align:top;">http_accept_encoding</td><td style="vertical-align:top;">:</td><td><div>gzip, deflate, br</div></td></tr><tr><td style="font-weight:bold;vertical-align:top;">http_accept_language</td><td style="vertical-align:top;">:</td><td><div>en-US,en;q=0.9,la;q=0.8</div></td></tr><tr><td style="font-weight:bold;vertical-align:top;">http_cache_control</td><td style="vertical-align:top;">:</td><td><div>no-cache</div></td></tr><tr><td style="font-weight:bold;vertical-align:top;">http_connection</td><td style="vertical-align:top;">:</td><td><div>keep-alive</div></td></tr><tr><td style="font-weight:bold;vertical-align:top;">http_content_length</td><td style="vertical-align:top;">:</td><td><div>16</div></td></tr><tr><td style="font-weight:bold;vertical-align:top;">http_content_type</td><td style="vertical-align:top;">:</td><td><div>application/x-www-form-urlencoded; charset=UTF-8</div></td></tr><tr><td style="font-weight:bold;vertical-align:top;">http_host</td><td style="vertical-align:top;">:</td><td><div>localhost:8000</div></td></tr><tr><td style="font-weight:bold;vertical-align:top;">http_origin</td><td style="vertical-align:top;">:</td><td><div>http://localhost:8080</div></td></tr><tr><td style="font-weight:bold;vertical-align:top;">http_pragma</td><td style="vertical-align:top;">:</td><td><div>no-cache</div></td></tr><tr><td style="font-weight:bold;vertical-align:top;">http_referer</td><td style="vertical-align:top;">:</td><td><div>http://localhost:8080/</div></td></tr><tr><td style="font-weight:bold;vertical-align:top;">http_user_agent</td><td style="vertical-align:top;">:</td><td><div>Mozilla/5.0 (Macintosh; Intel Mac OS X 10_14_0) AppleWebKit/537.36 (KHTML, like Gecko) Chrome/70.0.3538.110 Safari/537.36</div></td></tr><tr><td style="font-weight:bold;vertical-align:top;">is_jython</td><td style="vertical-align:top;">:</td><td><div>False</div></td></tr><tr><td style="font-weight:bold;vertical-align:top;">is_py2</td><td style="vertical-align:top;">:</td><td><div>True</div></td></tr><tr><td style="font-weight:bold;vertical-align:top;">is_pypy</td><td style="vertical-align:top;">:</td><td><div>False</div></td></tr><tr><td style="font-weight:bold;vertical-align:top;">is_source</td><td style="vertical-align:top;">:</td><td><div>True</div></td></tr><tr><td style="font-weight:bold;vertical-align:top;">local_hosts</td><td style="vertical-align:top;">:</td><td><div><table><tr><td><div>::1</div></td></tr><tr><td><div>169.233.227.245</div></td></tr><tr><td><div>::ffff:127.0.0.1</div></td></tr><tr><td><div>127.0.0.1</div></td></tr><tr><td><div>eduroam-169-233-227-245.ucsc.edu</div></td></tr></table></div></td></tr><tr><td style="font-weight:bold;vertical-align:top;">path_info</td><td style="vertical-align:top;">:</td><td><div>/favr/api/getFavr</div></td></tr><tr><td style="font-weight:bold;vertical-align:top;">query_string</td><td style="vertical-align:top;">:</td><td><div></div></td></tr><tr><td style="font-weight:bold;vertical-align:top;">remote_addr</td><td style="vertical-align:top;">:</td><td><div>127.0.0.1</div></td></tr><tr><td style="font-weight:bold;vertical-align:top;">remote_port</td><td style="vertical-align:top;">:</td><td><div>56799</div></td></tr><tr><td style="font-weight:bold;vertical-align:top;">request_method</td><td style="vertical-align:top;">:</td><td><div>POST</div></td></tr><tr><td style="font-weight:bold;vertical-align:top;">request_uri</td><td style="vertical-align:top;">:</td><td><div>/favr/api/getFavr</div></td></tr><tr><td style="font-weight:bold;vertical-align:top;">script_name</td><td style="vertical-align:top;">:</td><td><div></div></td></tr><tr><td style="font-weight:bold;vertical-align:top;">server_name</td><td style="vertical-align:top;">:</td><td><div>eduroam-169-233-227-245.ucsc.edu</div></td></tr><tr><td style="font-weight:bold;vertical-align:top;">server_port</td><td style="vertical-align:top;">:</td><td><div>8000</div></td></tr><tr><td style="font-weight:bold;vertical-align:top;">server_protocol</td><td style="vertical-align:top;">:</td><td><div>HTTP/1.1</div></td></tr><tr><td style="font-weight:bold;vertical-align:top;">server_software</td><td style="vertical-align:top;">:</td><td><div>Rocket 1.2.6</div></td></tr><tr><td style="font-weight:bold;vertical-align:top;">web2py_path</td><td style="vertical-align:top;">:</td><td><div>/Users/Dkpalea/PycharmProjects/favr-final-project</div></td></tr><tr><td style="font-weight:bold;vertical-align:top;">web2py_version</td><td style="vertical-align:top;">:</td><td><div>2.17.2-stable+timestamp.2018.10.06.18.54.02</div></td></tr><tr><td style="font-weight:bold;vertical-align:top;">wsgi.errors</td><td style="vertical-align:top;">:</td><td><div>&lt;open file &#x27;&lt;stderr&gt;&#x27;, mode &#x27;w&#x27; at 0x101ae11e0&gt;</div></td></tr><tr><td style="font-weight:bold;vertical-align:top;">wsgi.file_wrapper</td><td style="vertical-align:top;">:</td><td><div>&lt;class wsgiref.util.FileWrapper at 0x1027c7328&gt;</div></td></tr><tr><td style="font-weight:bold;vertical-align:top;">wsgi.input</td><td style="vertical-align:top;">:</td><td><div>&lt;socket._fileobject object at 0x109236350&gt;</div></td></tr><tr><td style="font-weight:bold;vertical-align:top;">wsgi.multiprocess</td><td style="vertical-align:top;">:</td><td><div>False</div></td></tr><tr><td style="font-weight:bold;vertical-align:top;">wsgi.multithread</td><td style="vertical-align:top;">:</td><td><div>True</div></td></tr><tr><td style="font-weight:bold;vertical-align:top;">wsgi.run_once</td><td style="vertical-align:top;">:</td><td><div>False</div></td></tr><tr><td style="font-weight:bold;vertical-align:top;">wsgi.url_scheme</td><td style="vertical-align:top;">:</td><td><div>http</div></td></tr><tr><td style="font-weight:bold;vertical-align:top;">wsgi.version</td><td style="vertical-align:top;">:</td><td><div><table><tr><td><div>1</div></td></tr><tr><td><div>0</div></td></tr></table></div></td></tr><tr><td style="font-weight:bold;vertical-align:top;">wsgi_errors</td><td style="vertical-align:top;">:</td><td><div>&lt;open file &#x27;&lt;stderr&gt;&#x27;, mode &#x27;w&#x27; at 0x101ae11e0&gt;</div></td></tr><tr><td style="font-weight:bold;vertical-align:top;">wsgi_file_wrapper</td><td style="vertical-align:top;">:</td><td><div>&lt;class wsgiref.util.FileWrapper at 0x1027c7328&gt;</div></td></tr><tr><td style="font-weight:bold;vertical-align:top;">wsgi_input</td><td style="vertical-align:top;">:</td><td><div>&lt;socket._fileobject object at 0x109236350&gt;</div></td></tr><tr><td style="font-weight:bold;vertical-align:top;">wsgi_multiprocess</td><td style="vertical-align:top;">:</td><td><div>False</div></td></tr><tr><td style="font-weight:bold;vertical-align:top;">wsgi_multithread</td><td style="vertical-align:top;">:</td><td><div>True</div></td></tr><tr><td style="font-weight:bold;vertical-align:top;">wsgi_run_once</td><td style="vertical-align:top;">:</td><td><div>False</div></td></tr><tr><td style="font-weight:bold;vertical-align:top;">wsgi_url_scheme</td><td style="vertical-align:top;">:</td><td><div>http</div></td></tr><tr><td style="font-weight:bold;vertical-align:top;">wsgi_version</td><td style="vertical-align:top;">:</td><td><div><table><tr><td><div>1</div></td></tr><tr><td><div>0</div></td></tr></table></div></td></tr></table></div></td></tr><tr><td style="font-weight:bold;vertical-align:top;">extension</td><td style="vertical-align:top;">:</td><td><div>html</div></td></tr><tr><td style="font-weight:bold;vertical-align:top;">folder</td><td style="vertical-align:top;">:</td><td><div>/Users/Dkpalea/PycharmProjects/favr-final-project/applications/favr/</div></td></tr><tr><td style="font-weight:bold;vertical-align:top;">function</td><td style="vertical-align:top;">:</td><td><div>getFavr</div></td></tr><tr><td style="font-weight:bold;vertical-align:top;">global_settings</td><td style="vertical-align:top;">:</td><td><div><table><tr><td style="font-weight:bold;vertical-align:top;">app_folders</td><td style="vertical-align:top;">:</td><td><div>set([&#x27;/Users/Dkpalea/PycharmProjects/favr-final-project/applications/admin/&#x27;, &#x27;/Users/Dkpalea/PycharmProjects/favr-final-project/applications/welcome/&#x27;, &#x27;/Users/Dkpalea/PycharmProjects/favr-final-project/applications/favr/&#x27;])</div></td></tr><tr><td style="font-weight:bold;vertical-align:top;">applications_parent</td><td style="vertical-align:top;">:</td><td><div>/Users/Dkpalea/PycharmProjects/favr-final-project</div></td></tr><tr><td style="font-weight:bold;vertical-align:top;">cmd_args</td><td style="vertical-align:top;">:</td><td><div><table></table></div></td></tr><tr><td style="font-weight:bold;vertical-align:top;">cmd_options</td><td style="vertical-align:top;">:</td><td><div>&lt;Values at 0x10382f0e0: {&#x27;verbose&#x27;: False, &#x27;ip&#x27;: &#x27;127.0.0.1&#x27;, &#x27;debuglevel&#x27;: 30, &#x27;with_scheduler&#x27;: False, &#x27;shutdown_timeout&#x27;: 5, &#x27;taskbar&#x27;: False, &#x27;with_coverage&#x27;: False, &#x27;pid_filename&#x27;: &#x27;httpserver.pid&#x27;, &#x27;maxthreads&#x27;: None, &#x27;softcron&#x27;: False, &#x27;server_name&#x27;: &#x27;eduroam-169-233-227-245.ucsc.edu&#x27;, &#x27;bpython&#x27;: False, &#x27;nogui&#x27;: False, &#x27;port&#x27;: 8000, &#x27;print_errors&#x27;: False, &#x27;extcron&#x27;: False, &#x27;runcron&#x27;: False, &#x27;run_system_tests&#x27;: False, &#x27;test&#x27;: None, &#x27;folder&#x27;: &#x27;/Users/Dkpalea/PycharmProjects/favr-final-project&#x27;, &#x27;config&#x27;: &#x27;&#x27;, &#x27;minthreads&#x27;: None, &#x27;shell&#x27;: None, &#x27;run&#x27;: &#x27;&#x27;, &#x27;log_filename&#x27;: &#x27;httpserver.log&#x27;, &#x27;profiler_dir&#x27;: None, &#x27;args&#x27;: [&#x27;&#x27;], &#x27;socket_timeout&#x27;: 5, &#x27;ssl_ca_certificate&#x27;: None, &#x27;scheduler&#x27;: None, &#x27;interfaces&#x27;: None, &#x27;ssl_private_key&#x27;: &#x27;&#x27;, &#x27;gae&#x27;: None, &#x27;password&#x27;: &#x27;******&#x27;, &#x27;request_queue_size&#x27;: 5, &#x27;ssl_certificate&#x27;: &#x27;&#x27;, &#x27;cronjob&#x27;: False, &#x27;numthreads&#x27;: None, &#x27;quiet&#x27;: False, &#x27;import_models&#x27;: False, &#x27;timeout&#x27;: 10, &#x27;plain&#x27;: False, &#x27;nobanner&#x27;: False}&gt;</div></td></tr><tr><td style="font-weight:bold;vertical-align:top;">db_sessions</td><td style="vertical-align:top;">:</td><td><div>set([&#x27;favr&#x27;])</div></td></tr><tr><td style="font-weight:bold;vertical-align:top;">debugging</td><td style="vertical-align:top;">:</td><td><div>False</div></td></tr><tr><td style="font-weight:bold;vertical-align:top;">gluon_parent</td><td style="vertical-align:top;">:</td><td><div>/Users/Dkpalea/PycharmProjects/favr-final-project</div></td></tr><tr><td style="font-weight:bold;vertical-align:top;">is_jython</td><td style="vertical-align:top;">:</td><td><div>False</div></td></tr><tr><td style="font-weight:bold;vertical-align:top;">is_py2</td><td style="vertical-align:top;">:</td><td><div>True</div></td></tr><tr><td style="font-weight:bold;vertical-align:top;">is_pypy</td><td style="vertical-align:top;">:</td><td><div>False</div></td></tr><tr><td style="font-weight:bold;vertical-align:top;">is_source</td><td style="vertical-align:top;">:</td><td><div>True</div></td></tr><tr><td style="font-weight:bold;vertical-align:top;">local_hosts</td><td style="vertical-align:top;">:</td><td><div><table><tr><td><div>::1</div></td></tr><tr><td><div>169.233.227.245</div></td></tr><tr><td><div>::ffff:127.0.0.1</div></td></tr><tr><td><div>127.0.0.1</div></td></tr><tr><td><div>eduroam-169-233-227-245.ucsc.edu</div></td></tr></table></div></td></tr><tr><td style="font-weight:bold;vertical-align:top;">web2py_version</td><td style="vertical-align:top;">:</td><td><div>2.17.2-stable+timestamp.2018.10.06.18.54.02</div></td></tr></table></div></td></tr><tr><td style="font-weight:bold;vertical-align:top;">is_https</td><td style="vertical-align:top;">:</td><td><div>False</div></td></tr><tr><td style="font-weight:bold;vertical-align:top;">is_local</td><td style="vertical-align:top;">:</td><td><div>True</div></td></tr><tr><td style="font-weight:bold;vertical-align:top;">is_restful</td><td style="vertical-align:top;">:</td><td><div>False</div></td></tr><tr><td style="font-weight:bold;vertical-align:top;">is_scheduler</td><td style="vertical-align:top;">:</td><td><div>False</div></td></tr><tr><td style="font-weight:bold;vertical-align:top;">is_shell</td><td style="vertical-align:top;">:</td><td><div>False</div></td></tr><tr><td style="font-weight:bold;vertical-align:top;">method</td><td style="vertical-align:top;">:</td><td><div>POST</div></td></tr><tr><td style="font-weight:bold;vertical-align:top;">now</td><td style="vertical-align:top;">:</td><td><div>datetime.datetime(2018, 11, 28, 15, 24, 53, 652928)</div></td></tr><tr><td style="font-weight:bold;vertical-align:top;">raw_args</td><td style="vertical-align:top;">:</td><td><div></div></td></tr><tr><td style="font-weight:bold;vertical-align:top;">raw_extension</td><td style="vertical-align:top;">:</td><td><div>None</div></td></tr><tr><td style="font-weight:bold;vertical-align:top;">url</td><td style="vertical-align:top;">:</td><td><div>/favr/api/getFavr</div></td></tr><tr><td style="font-weight:bold;vertical-align:top;">utcnow</td><td style="vertical-align:top;">:</td><td><div>datetime.datetime(2018, 11, 28, 23, 24, 53, 652935)</div></td></tr><tr><td style="font-weight:bold;vertical-align:top;">wsgi</td><td style="vertical-align:top;">:</td><td><div>&lt;gluon.main.LazyWSGI object at 0x106f65950&gt;</div></td></tr></table></div>'
tRp60
sS'frames'
p61
(lp62
(dp63
S'file'
p64
S'/Users/Dkpalea/PycharmProjects/favr-final-project/gluon/restricted.py'
p65
sS'dump'
p66
(dp67
S'environment'
p68
S"{'A': <class 'gluon.html.A'>, 'ANY_OF': <class 'gluon.validators.ANY_OF'>, 'ASSIGNJS': <function ASSIGNJS>, 'AppConfig': <function AppConfig>, 'Auth': <class 'gluon.tools.Auth'>, 'B': <class 'gluon.html.B'>, 'BEAUTIFY': <class 'gluon.html.BEAUTIFY'>, 'BODY': <class 'gluon.html.BODY'>, 'BR': <class 'gluon.html.BR'>, 'BUTTON': <class 'gluon.html.BUTTON'>, ...}"
p69
sS'ccode'
p70
S'<code object <module> at 0x109269430, file "/Use...ct/applications/favr/controllers/api.py", line 1>'
p71
ssS'lnum'
p72
I219
sS'lines'
p73
(dp74
I214
S'    if environment is None:'
p75
sI215
S'        environment = {}'
p76
sI216
S"    environment['__file__'] = layer"
p77
sI217
S"    environment['__name__'] = '__restricted__'"
p78
sI218
S'    try:'
p79
sI219
S'        exec(ccode, environment)'
p80
sI220
S'    except HTTP:'
p81
sI221
S'        raise'
p82
sI222
S'    except RestrictedError:'
p83
sI223
S'        # do not encapsulate (obfuscate) the original RestrictedError'
p84
ssS'call'
p85
S'(ccode=<code object <module> at 0x109269430, file "/Use...ct/applications/favr/controllers/api.py", line 1>, environment={\'A\': <class \'gluon.html.A\'>, \'ANY_OF\': <class \'gluon.validators.ANY_OF\'>, \'ASSIGNJS\': <function ASSIGNJS>, \'AppConfig\': <function AppConfig>, \'Auth\': <class \'gluon.tools.Auth\'>, \'B\': <class \'gluon.html.B\'>, \'BEAUTIFY\': <class \'gluon.html.BEAUTIFY\'>, \'BODY\': <class \'gluon.html.BODY\'>, \'BR\': <class \'gluon.html.BR\'>, \'BUTTON\': <class \'gluon.html.BUTTON\'>, ...}, layer=\'/Users/Dkpalea/PycharmProjects/favr-final-project/applications/favr/controllers/api.py\', scode=<code object <module> at 0x109269430, file "/Use...ct/applications/favr/controllers/api.py", line 1>)'
p86
sS'func'
p87
S'restricted'
p88
sa(dp89
g64
S'/Users/Dkpalea/PycharmProjects/favr-final-project/applications/favr/controllers/api.py'
p90
sg66
(dp91
sg72
I115
sg73
(dp92
I104
S'                id=row.post.id,'
p93
sI105
S'                post_title=row.post.post_title,'
p94
sI106
S'                post_content=row.post.post_content,'
p95
sI107
S'                post_author=row.post.post_author,'
p96
sI108
S'                thumb = None if row.thumb.id is None else row.thumb.thumb_state,'
p97
sI109
S'            ))'
p98
sI110
S'    # For homogeneity, we always return a dictionary.'
p99
sI111
S'    return response.json(dict(post_list=results))'
p100
sI112
S''
sI113
S''
ssg85
S'()'
p101
sg87
S'<module>'
p102
sa(dp103
g64
S'/Users/Dkpalea/PycharmProjects/favr-final-project/gluon/globals.py'
p104
sg66
(dp105
S'self'
p106
S'undefined'
p107
sS'f'
S'<function getFavr>'
p108
ssg72
I421
sg73
(dp109
I416
S"        self.flash = ''            # used by the default view layout"
p110
sI417
S'        self.meta = Storage()      # used by web2py_ajax.html'
p111
sI418
S'        self.menu = []             # used by the default view layout'
p112
sI419
S'        self.files = []            # used by web2py_ajax.html'
p113
sI420
S'        self._vars = None'
p114
sI421
S'        self._caller = lambda f: f()'
p115
sI422
S'        self._view_environment = None'
p116
sI423
S'        self._custom_commit = None'
p117
sI424
S'        self._custom_rollback = None'
p118
sI425
S"        self.generic_patterns = ['*']"
p119
ssg85
S'(f=<function getFavr>)'
p120
sg87
S'<lambda>'
p121
sa(dp122
g64
S'/Users/Dkpalea/PycharmProjects/favr-final-project/applications/favr/controllers/api.py'
p123
sg66
(dp124
S'orderby'
p125
g107
sS'rows'
p126
g107
sS'builtinFalse'
p127
S'False'
p128
sS'db.favr.ALL'
p129
S'<pydal.helpers.classes.SQLALL object>'
p130
sS').select'
p131
g107
sS'db.favr.requestTime'
p132
S'<pydal.objects.Field object>'
p133
sS'db.favr.isComplete'
p134
S'<pydal.objects.Field object>'
p135
sS'global db'
p136
S'<DAL uri="sqlite://storage.sqlite">'
p137
sS'db.favr'
p138
S'<Table favr (id, title, details, pickupLocation,...illedBy, requestTime, requestAmount, isComplete)>'
p139
ssg72
I44
sg73
(dp140
I39
S'            rows = db('
p141
sI40
S'                db.favr.REFrequestedBy == auth.user.email and'
p142
sI41
S'                db.favr.isComplete == False).select('
p143
sI42
S'                  db.favr.ALL, orderby=db.favr.requestTime)'
p144
sI43
S'    else:'
p145
sI44
S'        rows = db(db.favr.isComplete == False).select(db.favr.ALL, orderby=db.favr.requestTime)'
p146
sI45
S'    for row in rows:'
p147
sI46
S'        REFrequestedByRow = db(db.auth_user.email == row.REFrequestedBy).select('
p148
sI47
S'            db.auth_user.first_name, db.auth_user.first_name).first()'
p149
sI48
S'        REFrequestedBy = dict('
p150
ssg85
S'()'
p151
sg87
S'getFavr'
p152
sa(dp153
g64
S'/Users/Dkpalea/PycharmProjects/favr-final-project/gluon/packages/dal/pydal/objects.py'
p154
sg66
(dp155
S'self.query'
p156
S'<Query ("favr"."isComplete" = \'False\')>'
p157
sS'adapter.select'
p158
S'<bound method SQLite.select of <pydal.adapters.sqlite.SQLite object>>'
p159
sS'fields'
p160
S'[<pydal.objects.Field object>, <pydal.objects.Field object>, <pydal.objects.Field object>, <pydal.objects.Field object>, <pydal.objects.Field object>, <pydal.objects.Field object>, <pydal.objects.Field object>, <pydal.objects.Field object>, <pydal.objects.Field object>, <pydal.objects.Field object>, <pydal.objects.Field object>, <pydal.objects.Field object>]'
p161
sS'adapter'
p162
S'<pydal.adapters.sqlite.SQLite object>'
p163
sS'attributes'
p164
S"{'orderby': <pydal.objects.Field object>}"
p165
sS'self'
p166
S'<Set ("favr"."isComplete" = \'False\')>'
p167
ssg72
I2275
sg73
(dp168
I2272
S"                                    attributes.get('orderby', None),"
p169
sI2273
S"                                    attributes.get('groupby', None))"
p170
sI2274
S'        fields = adapter.expand_all(fields, tablenames)'
p171
sI2275
S'        return adapter.select(self.query, fields, attributes)'
p172
sI2276
S''
sI2277
S'    def iterselect(self, *fields, **attributes):'
p173
sI2278
S'        adapter = self.db._adapter'
p174
sI2279
S'        tablenames = adapter.tables(self.query,'
p175
sI2270
S"                                    attributes.get('join', None),"
p176
sI2271
S"                                    attributes.get('left', None),"
p177
ssg85
S'(self=<Set ("favr"."isComplete" = \'False\')>, *fields=[<pydal.objects.Field object>, <pydal.objects.Field object>, <pydal.objects.Field object>, <pydal.objects.Field object>, <pydal.objects.Field object>, <pydal.objects.Field object>, <pydal.objects.Field object>, <pydal.objects.Field object>, <pydal.objects.Field object>, <pydal.objects.Field object>, <pydal.objects.Field object>, <pydal.objects.Field object>], **attributes={\'orderby\': <pydal.objects.Field object>})'
p178
sg87
S'select'
p179
sa(dp180
g64
S'/Users/Dkpalea/PycharmProjects/favr-final-project/gluon/packages/dal/pydal/adapters/sqlite.py'
p181
sg66
(dp182
S'fields'
p183
S'[<pydal.objects.Field object>, <pydal.objects.Field object>, <pydal.objects.Field object>, <pydal.objects.Field object>, <pydal.objects.Field object>, <pydal.objects.Field object>, <pydal.objects.Field object>, <pydal.objects.Field object>, <pydal.objects.Field object>, <pydal.objects.Field object>, <pydal.objects.Field object>, <pydal.objects.Field object>]'
p184
sS'self'
p185
S'<pydal.adapters.sqlite.SQLite object>'
p186
sS').select'
p187
S'<bound method SQLite.select of <pydal.adapters.sqlite.SQLite object>>'
p188
sS'attributes'
p189
S"{'orderby': <pydal.objects.Field object>}"
p190
sS'query'
p191
S'<Query ("favr"."isComplete" = \'False\')>'
p192
sS'builtinsuper'
p193
S"<type 'super'>"
p194
sS'global SQLite'
p195
S"<class 'pydal.adapters.sqlite.SQLite'>"
p196
ssg72
I82
sg73
(dp197
I77
S"            self.execute('PRAGMA foreign_keys=ON;')"
p198
sI78
S''
sI79
S'    def select(self, query, fields, attributes):'
p199
sI80
S"        if attributes.get('for_update', False) and 'cache' not in attributes:"
p200
sI81
S"            self.execute('BEGIN IMMEDIATE TRANSACTION;')"
p201
sI82
S'        return super(SQLite, self).select(query, fields, attributes)'
p202
sI83
S''
sI84
S'    def delete(self, table, query):'
p203
sI85
S'        db = self.db'
p204
sI86
S'        deleted = [x[table._id.name] for x in db(query).select(table._id)]'
p205
ssg85
S'(self=<pydal.adapters.sqlite.SQLite object>, query=<Query ("favr"."isComplete" = \'False\')>, fields=[<pydal.objects.Field object>, <pydal.objects.Field object>, <pydal.objects.Field object>, <pydal.objects.Field object>, <pydal.objects.Field object>, <pydal.objects.Field object>, <pydal.objects.Field object>, <pydal.objects.Field object>, <pydal.objects.Field object>, <pydal.objects.Field object>, <pydal.objects.Field object>, <pydal.objects.Field object>], attributes={\'orderby\': <pydal.objects.Field object>})'
p206
sg87
g179
sa(dp207
g64
S'/Users/Dkpalea/PycharmProjects/favr-final-project/gluon/packages/dal/pydal/adapters/base.py'
p208
sg66
(dp209
S'self._select_aux'
p210
S'<bound method SQLite._select_aux of <pydal.adapters.sqlite.SQLite object>>'
p211
sS'fields'
p212
S'[<pydal.objects.Field object>, <pydal.objects.Field object>, <pydal.objects.Field object>, <pydal.objects.Field object>, <pydal.objects.Field object>, <pydal.objects.Field object>, <pydal.objects.Field object>, <pydal.objects.Field object>, <pydal.objects.Field object>, <pydal.objects.Field object>, <pydal.objects.Field object>, <pydal.objects.Field object>]'
p213
sS'self'
p214
S'<pydal.adapters.sqlite.SQLite object>'
p215
sS'sql'
p216
S'\'SELECT "favr"."id", "favr"."title", "favr"."deta...mplete" = \\\'False\\\') ORDER BY "favr"."requestTime";\''
p217
sS'attributes'
p218
S"{'orderby': <pydal.objects.Field object>}"
p219
sS'colnames'
p220
S"['favr.id', 'favr.title', 'favr.details', 'favr.pickupLocation', 'favr.dropoffLocation', 'favr.expirationTime', 'favr.fulfillerStartTime', 'favr.REFrequestedBy', 'favr.REFfulfilledBy', 'favr.requestTime', 'favr.requestAmount', 'favr.isComplete']"
p221
ssg72
I763
sg73
(dp222
I758
S'        colnames, sql = self._select_wcols(query, fields, **attributes)'
p223
sI759
S"        cache = attributes.get('cache', None)"
p224
sI760
S"        if cache and attributes.get('cacheable', False):"
p225
sI761
S'            return self._cached_select('
p226
sI762
S'                cache, sql, fields, attributes, colnames)'
p227
sI763
S'        return self._select_aux(sql, fields, attributes, colnames)'
p228
sI764
S''
sI765
S'    def iterselect(self, query, fields, attributes):'
p229
sI766
S'        colnames, sql = self._select_wcols(query, fields, **attributes)'
p230
sI767
S"        cacheable = attributes.get('cacheable', False)"
p231
ssg85
S'(self=<pydal.adapters.sqlite.SQLite object>, query=<Query ("favr"."isComplete" = \'False\')>, fields=[<pydal.objects.Field object>, <pydal.objects.Field object>, <pydal.objects.Field object>, <pydal.objects.Field object>, <pydal.objects.Field object>, <pydal.objects.Field object>, <pydal.objects.Field object>, <pydal.objects.Field object>, <pydal.objects.Field object>, <pydal.objects.Field object>, <pydal.objects.Field object>, <pydal.objects.Field object>], attributes={\'orderby\': <pydal.objects.Field object>})'
p232
sg87
g179
sa(dp233
g64
S'/Users/Dkpalea/PycharmProjects/favr-final-project/gluon/packages/dal/pydal/adapters/base.py'
p234
sg66
(dp235
S'self'
p236
S'<pydal.adapters.sqlite.SQLite object>'
p237
sS'rows'
p238
g107
sS'self._select_aux_execute'
p239
S'<bound method SQLite._select_aux_execute of <pydal.adapters.sqlite.SQLite object>>'
p240
sS'sql'
p241
S'\'SELECT "favr"."id", "favr"."title", "favr"."deta...mplete" = \\\'False\\\') ORDER BY "favr"."requestTime";\''
p242
ssg72
I719
sg73
(dp243
I714
S'        return self.cursor.fetchall()'
p244
sI715
S''
sI716
S'    def _select_aux(self, sql, fields, attributes, colnames):'
p245
sI717
S"        cache = attributes.get('cache', None)"
p246
sI718
S'        if not cache:'
p247
sI719
S'            rows = self._select_aux_execute(sql)'
p248
sI720
S'        else:'
p249
sI721
S'            if isinstance(cache, dict):'
p250
sI722
S"                cache_model = cache['model']"
p251
sI723
S"                time_expire = cache['expiration']"
p252
ssg85
S'(self=<pydal.adapters.sqlite.SQLite object>, sql=\'SELECT "favr"."id", "favr"."title", "favr"."deta...mplete" = \\\'False\\\') ORDER BY "favr"."requestTime";\', fields=[<pydal.objects.Field object>, <pydal.objects.Field object>, <pydal.objects.Field object>, <pydal.objects.Field object>, <pydal.objects.Field object>, <pydal.objects.Field object>, <pydal.objects.Field object>, <pydal.objects.Field object>, <pydal.objects.Field object>, <pydal.objects.Field object>, <pydal.objects.Field object>, <pydal.objects.Field object>], attributes={\'orderby\': <pydal.objects.Field object>}, colnames=[\'favr.id\', \'favr.title\', \'favr.details\', \'favr.pickupLocation\', \'favr.dropoffLocation\', \'favr.expirationTime\', \'favr.fulfillerStartTime\', \'favr.REFrequestedBy\', \'favr.REFfulfilledBy\', \'favr.requestTime\', \'favr.requestAmount\', \'favr.isComplete\'])'
p253
sg87
S'_select_aux'
p254
sa(dp255
g64
S'/Users/Dkpalea/PycharmProjects/favr-final-project/gluon/packages/dal/pydal/adapters/base.py'
p256
sg66
(dp257
S'self'
p258
S'<pydal.adapters.sqlite.SQLite object>'
p259
sS'self.execute'
p260
S'<bound method SQLite.wrap of <pydal.adapters.sqlite.SQLite object>>'
p261
sS'sql'
p262
S'\'SELECT "favr"."id", "favr"."title", "favr"."deta...mplete" = \\\'False\\\') ORDER BY "favr"."requestTime";\''
p263
ssg72
I713
sg73
(dp264
I708
S''
sI709
S'    def nested_select(self, query, fields, attributes):'
p265
sI710
S'        return Select(self.db, query, fields, attributes)'
p266
sI711
S''
sI712
S'    def _select_aux_execute(self, sql):'
p267
sI713
S'        self.execute(sql)'
p268
sI714
S'        return self.cursor.fetchall()'
p269
sI715
S''
sI716
S'    def _select_aux(self, sql, fields, attributes, colnames):'
p270
sI717
S"        cache = attributes.get('cache', None)"
p271
ssg85
S'(self=<pydal.adapters.sqlite.SQLite object>, sql=\'SELECT "favr"."id", "favr"."title", "favr"."deta...mplete" = \\\'False\\\') ORDER BY "favr"."requestTime";\')'
p272
sg87
S'_select_aux_execute'
p273
sa(dp274
g64
S'/Users/Dkpalea/PycharmProjects/favr-final-project/gluon/packages/dal/pydal/adapters/__init__.py'
p275
sg66
(dp276
S'kwargs'
p277
g19
sS'args'
p278
S'(<pydal.adapters.sqlite.SQLite object>, \'SELECT "favr"."id", "favr"."title", "favr"."deta...mplete" = \\\'False\\\') ORDER BY "favr"."requestTime";\')'
p279
sS'f'
S'<function execute>'
p280
ssg72
I67
sg73
(dp281
I64
S'            if len(args) > 1:'
p282
sI65
S'                raise ValueError(args[1])'
p283
sI66
S"            raise RuntimeError('no connection available')"
p284
sI67
S'        return f(*args, **kwargs)'
p285
sI68
S'    return wrap'
p286
sI69
S''
sI70
S''
sI71
S'from .base import SQLAdapter, NoSQLAdapter'
p287
sI62
S'    def wrap(*args, **kwargs):'
p288
sI63
S'        if not args[0].connection:'
p289
ssg85
S'(*args=(<pydal.adapters.sqlite.SQLite object>, \'SELECT "favr"."id", "favr"."title", "favr"."deta...mplete" = \\\'False\\\') ORDER BY "favr"."requestTime";\'), **kwargs={})'
p290
sg87
S'wrap'
p291
sa(dp292
g64
S'/Users/Dkpalea/PycharmProjects/favr-final-project/gluon/packages/dal/pydal/adapters/base.py'
p293
sg66
(dp294
S'rv'
p295
g107
sS'self'
p296
S'<pydal.adapters.sqlite.SQLite object>'
p297
sS'args'
p298
S'(\'SELECT "favr"."id", "favr"."title", "favr"."deta...mplete" = \\\'False\\\') ORDER BY "favr"."requestTime";\',)'
p299
sS'self.cursor'
p300
S'<sqlite3.Cursor object>'
p301
sS'command'
p302
S'\'SELECT "favr"."id", "favr"."title", "favr"."deta...mplete" = \\\'False\\\') ORDER BY "favr"."requestTime";\''
p303
sS'self.cursor.execute'
p304
S'<built-in method execute of sqlite3.Cursor object>'
p305
sS'kwargs'
p306
g19
ssg72
I413
sg73
(dp307
I416
S'        return rv'
p308
sI417
S''
sI408
S'    def execute(self, *args, **kwargs):'
p309
sI409
S'        command = self.filter_sql_command(args[0])'
p310
sI410
S'        handlers = self._build_handlers_for_execution()'
p311
sI411
S'        for handler in handlers:'
p312
sI412
S'            handler.before_execute(command)'
p313
sI413
S'        rv = self.cursor.execute(command, *args[1:], **kwargs)'
p314
sI414
S'        for handler in handlers:'
p315
sI415
S'            handler.after_execute(command)'
p316
ssg85
S'(self=<pydal.adapters.sqlite.SQLite object>, *args=(\'SELECT "favr"."id", "favr"."title", "favr"."deta...mplete" = \\\'False\\\') ORDER BY "favr"."requestTime";\',), **kwargs={})'
p317
sg87
S'execute'
p318
sa(dp319
g64
S'/System/Library/Frameworks/Python.framework/Versions/2.7/lib/python2.7/sqlite3/dbapi2.py'
p320
sg66
(dp321
S'timepart'
p322
g107
sS'val.split'
p323
S'<built-in method split of str object>'
p324
sS'datepart'
p325
g107
sS'val'
p326
S"'Tue Nov 27 2018 14:12:50 GMT-0800 (Pacific Standard Time)'"
p327
ssg72
I68
sg73
(dp328
I64
S'    def convert_date(val):'
p329
sI65
S'        return datetime.date(*map(int, val.split("-")))'
p330
sI66
S''
sI67
S'    def convert_timestamp(val):'
p331
sI68
S'        datepart, timepart = val.split(" ")'
p332
sI69
S'        year, month, day = map(int, datepart.split("-"))'
p333
sI70
S'        timepart_full = timepart.split(".")'
p334
sI71
S'        hours, minutes, seconds = map(int, timepart_full[0].split(":"))'
p335
sI72
S'        if len(timepart_full) == 2:'
p336
sI63
S''
ssg85
S"(val='Tue Nov 27 2018 14:12:50 GMT-0800 (Pacific Standard Time)')"
p337
sg87
S'convert_timestamp'
p338
sasS'pyver'
p339
S'Python 2.7.10: /Users/Dkpalea/PycharmProjects/CMPS183_HW1/venv/bin/python (prefix: /Users/Dkpalea/PycharmProjects/CMPS183_HW1/venv)'
p340
sS'session'
p341
g59
(S's\x1a\x00\x00\x00<div><table></table></div>'
tRp342
sS'etype'
p343
S"<type 'exceptions.ValueError'>"
p344
sS'date'
p345
S'Wed Nov 28 15:24:53 2018'
p346
sS'response'
p347
g59
(S's\x1a\x1a\x00\x00<div><table><tr><td style="font-weight:bold;vertical-align:top;">body</td><td style="vertical-align:top;">:</td><td><div>&lt;cStringIO.StringO object at 0x106f84c70&gt;</div></td></tr><tr><td style="font-weight:bold;vertical-align:top;">cookies</td><td style="vertical-align:top;">:</td><td><div><table></table></div></td></tr><tr><td style="font-weight:bold;vertical-align:top;">delimiters</td><td style="vertical-align:top;">:</td><td><div><table><tr><td><div>{{</div></td></tr><tr><td><div>}}</div></td></tr></table></div></td></tr><tr><td style="font-weight:bold;vertical-align:top;">files</td><td style="vertical-align:top;">:</td><td><div><table></table></div></td></tr><tr><td style="font-weight:bold;vertical-align:top;">flash</td><td style="vertical-align:top;">:</td><td><div></div></td></tr><tr><td style="font-weight:bold;vertical-align:top;">form_label_separator</td><td style="vertical-align:top;">:</td><td><div></div></td></tr><tr><td style="font-weight:bold;vertical-align:top;">formstyle</td><td style="vertical-align:top;">:</td><td><div>bootstrap3_inline</div></td></tr><tr><td style="font-weight:bold;vertical-align:top;">generic_patterns</td><td style="vertical-align:top;">:</td><td><div><table><tr><td><div>*</div></td></tr></table></div></td></tr><tr><td style="font-weight:bold;vertical-align:top;">google_analytics_id</td><td style="vertical-align:top;">:</td><td><div>None</div></td></tr><tr><td style="font-weight:bold;vertical-align:top;">headers</td><td style="vertical-align:top;">:</td><td><div><table><tr><td style="font-weight:bold;vertical-align:top;">X-Powered-By</td><td style="vertical-align:top;">:</td><td><div>web2py</div></td></tr></table></div></td></tr><tr><td style="font-weight:bold;vertical-align:top;">logo</td><td style="vertical-align:top;">:</td><td><div><a class="navbar-brand" href="http://www.web2py.com/" id="web2py-logo"><b>web<span>2</span>py</b>&trade;&nbsp;</a></div></td></tr><tr><td style="font-weight:bold;vertical-align:top;">menu</td><td style="vertical-align:top;">:</td><td><div><table><tr><td><div><table><tr><td><div>Home</div></td></tr><tr><td><div>False</div></td></tr><tr><td><div>/favr/default/index</div></td></tr><tr><td><div><table></table></div></td></tr></table></div></td></tr><tr><td><div><table><tr><td><div>My Sites</div></td></tr><tr><td><div>False</div></td></tr><tr><td><div>/admin/default/site</div></td></tr></table></div></td></tr><tr><td><div><table><tr><td><div>Sample Menu 1</div></td></tr><tr><td><div>False</div></td></tr><tr><td><div>#</div></td></tr><tr><td><div><table><tr><td><div><table><tr><td><div>Entry1</div></td></tr><tr><td><div>False</div></td></tr><tr><td><div>/favr/default/entry1</div></td></tr></table></div></td></tr><tr><td><div><table><tr><td><div>Entry2</div></td></tr><tr><td><div>False</div></td></tr><tr><td><div>/favr/default/entry2</div></td></tr></table></div></td></tr></table></div></td></tr></table></div></td></tr><tr><td><div><table><tr><td><div>Sample Menu 2</div></td></tr><tr><td><div>False</div></td></tr><tr><td><div>/favr/default/index</div></td></tr></table></div></td></tr></table></div></td></tr><tr><td style="font-weight:bold;vertical-align:top;">meta</td><td style="vertical-align:top;">:</td><td><div><table><tr><td style="font-weight:bold;vertical-align:top;">author</td><td style="vertical-align:top;">:</td><td><div>Your Name &lt;you@example.com&gt;</div></td></tr><tr><td style="font-weight:bold;vertical-align:top;">description</td><td style="vertical-align:top;">:</td><td><div>a cool new app</div></td></tr><tr><td style="font-weight:bold;vertical-align:top;">generator</td><td style="vertical-align:top;">:</td><td><div>Web2py Web Framework</div></td></tr><tr><td style="font-weight:bold;vertical-align:top;">keywords</td><td style="vertical-align:top;">:</td><td><div><table><tr><td><div>web2py</div></td></tr><tr><td><div>python</div></td></tr><tr><td><div>framework</div></td></tr></table></div></td></tr></table></div></td></tr><tr><td style="font-weight:bold;vertical-align:top;">models_to_run</td><td style="vertical-align:top;">:</td><td><div><table><tr><td><div>^\\w+\\.py$</div></td></tr><tr><td><div>^api/\\w+\\.py$</div></td></tr><tr><td><div>^api/getFavr/\\w+\\.py$</div></td></tr></table></div></td></tr><tr><td style="font-weight:bold;vertical-align:top;">postprocessing</td><td style="vertical-align:top;">:</td><td><div><table></table></div></td></tr><tr><td style="font-weight:bold;vertical-align:top;">session_client</td><td style="vertical-align:top;">:</td><td><div>127.0.0.1</div></td></tr><tr><td style="font-weight:bold;vertical-align:top;">session_cookie_compression_level</td><td style="vertical-align:top;">:</td><td><div>None</div></td></tr><tr><td style="font-weight:bold;vertical-align:top;">session_cookie_expires</td><td style="vertical-align:top;">:</td><td><div>None</div></td></tr><tr><td style="font-weight:bold;vertical-align:top;">session_data_name</td><td style="vertical-align:top;">:</td><td><div>session_data_favr</div></td></tr><tr><td style="font-weight:bold;vertical-align:top;">session_db_table</td><td style="vertical-align:top;">:</td><td><div>&lt;Table web2py_session_favr (id, locked, client_ip, created_datetime, modified_datetime, unique_key, session_data)&gt;</div></td></tr><tr><td style="font-weight:bold;vertical-align:top;">session_hash</td><td style="vertical-align:top;">:</td><td><div>c0762cbf4baf7f9af97c051e7fcb8083</div></td></tr><tr><td style="font-weight:bold;vertical-align:top;">session_id</td><td style="vertical-align:top;">:</td><td><div>None</div></td></tr><tr><td style="font-weight:bold;vertical-align:top;">session_id_name</td><td style="vertical-align:top;">:</td><td><div>session_id_favr</div></td></tr><tr><td style="font-weight:bold;vertical-align:top;">session_masterapp</td><td style="vertical-align:top;">:</td><td><div>favr</div></td></tr><tr><td style="font-weight:bold;vertical-align:top;">session_new</td><td style="vertical-align:top;">:</td><td><div>True</div></td></tr><tr><td style="font-weight:bold;vertical-align:top;">session_storage_type</td><td style="vertical-align:top;">:</td><td><div>db</div></td></tr><tr><td style="font-weight:bold;vertical-align:top;">status</td><td style="vertical-align:top;">:</td><td><div>200</div></td></tr><tr><td style="font-weight:bold;vertical-align:top;">subtitle</td><td style="vertical-align:top;">:</td><td><div></div></td></tr><tr><td style="font-weight:bold;vertical-align:top;">title</td><td style="vertical-align:top;">:</td><td><div>Favr</div></td></tr><tr><td style="font-weight:bold;vertical-align:top;">view</td><td style="vertical-align:top;">:</td><td><div>api/getFavr.html</div></td></tr></table></div>'
tRp348
sS'locals'
p349
(dp350
S'val'
p351
S"'Tue Nov 27 2018 14:12:50 GMT-0800 (Pacific Standard Time)'"
p352
sssS'traceback'
p353
S'Traceback (most recent call last):\n  File "/Users/Dkpalea/PycharmProjects/favr-final-project/gluon/restricted.py", line 219, in restricted\n    exec(ccode, environment)\n  File "/Users/Dkpalea/PycharmProjects/favr-final-project/applications/favr/controllers/api.py", line 115, in <module>\n  File "/Users/Dkpalea/PycharmProjects/favr-final-project/gluon/globals.py", line 421, in <lambda>\n    self._caller = lambda f: f()\n  File "/Users/Dkpalea/PycharmProjects/favr-final-project/applications/favr/controllers/api.py", line 44, in getFavr\n    rows = db(db.favr.isComplete == False).select(db.favr.ALL, orderby=db.favr.requestTime)\n  File "/Users/Dkpalea/PycharmProjects/favr-final-project/gluon/packages/dal/pydal/objects.py", line 2275, in select\n    return adapter.select(self.query, fields, attributes)\n  File "/Users/Dkpalea/PycharmProjects/favr-final-project/gluon/packages/dal/pydal/adapters/sqlite.py", line 82, in select\n    return super(SQLite, self).select(query, fields, attributes)\n  File "/Users/Dkpalea/PycharmProjects/favr-final-project/gluon/packages/dal/pydal/adapters/base.py", line 763, in select\n    return self._select_aux(sql, fields, attributes, colnames)\n  File "/Users/Dkpalea/PycharmProjects/favr-final-project/gluon/packages/dal/pydal/adapters/base.py", line 719, in _select_aux\n    rows = self._select_aux_execute(sql)\n  File "/Users/Dkpalea/PycharmProjects/favr-final-project/gluon/packages/dal/pydal/adapters/base.py", line 713, in _select_aux_execute\n    self.execute(sql)\n  File "/Users/Dkpalea/PycharmProjects/favr-final-project/gluon/packages/dal/pydal/adapters/__init__.py", line 67, in wrap\n    return f(*args, **kwargs)\n  File "/Users/Dkpalea/PycharmProjects/favr-final-project/gluon/packages/dal/pydal/adapters/base.py", line 413, in execute\n    rv = self.cursor.execute(command, *args[1:], **kwargs)\n  File "/System/Library/Frameworks/Python.framework/Versions/2.7/lib/python2.7/sqlite3/dbapi2.py", line 68, in convert_timestamp\n    datepart, timepart = val.split(" ")\nValueError: too many values to unpack\n'
p354
s.